


ARM Macro Assembler    Page 1 


    1 00000000         ; –í–ª–æ–∂–µ–Ω–Ω—ã–µ –ø–æ–¥–ø—Ä–æ–≥—Ä–∞–º–º—ã. –°–æ—Ö—Ä–∞–Ω–µ–Ω–∏–µ –∏
    2 00000000         ; –≤–æ—Å—Å—Ç–∞–Ω–æ–≤–ª–µ–Ω–∏–µ –∫–æ–Ω—Ç–µ–∫—Å—Ç–∞
    3 00000000         
    4 00000000         ; –û–±—ä—è–≤–∏—Ç—å –∫–æ–¥–æ–≤—É—é —Å–µ–∫—Ü–∏—é MyCode
    5 00000000                 AREA             MyCode, CODE, ReadOnly
    6 00000000         ; –û–±—ä—è–≤–∏—Ç—å —Ç–æ—á–∫—É –≤—Ö–æ–¥–∞ –≤ –ø—Ä–æ–≥—Ä–∞–º–º—É –ø—Ä–∏–ª–æ–∂–µ–Ω–∏—è 
    7 00000000                 ENTRY
    8 00000000         ; –û–±—ä–≤–∏—Ç—å —Ç–æ—á–∫—É –≤—Ö–æ–¥–∞ –≥–ª–æ–±–∞–ª—å–Ω–æ–π –ø–µ—Ä–µ–º–µ–Ω–Ω–æ–π
    9 00000000                 EXPORT           MyProg
   10 00000000         MyProg
   11 00000000         ; –û—Å–Ω–æ–≤–Ω–∞—è –ø—Ä–æ–≥—Ä–∞–º–º–∞
   12 00000000         ; –ß–∏—Å–ª–æ —ç–ª–µ–º–µ–Ω—Ç–æ–≤ –∏—Å—Ö–æ–¥–Ω–æ–≥–æ –º–∞—Å—Å–∏–≤–∞ —Å–ª–æ–≤ –±–µ–∑ –∑–Ω–∞–∫–∞
   13 00000000 0000000A 
                       N       EQU              10
   14 00000000         ;    ...
   15 00000000         ; –ü–µ—Ä–µ–¥–∞—Ç—å –ø–∞—Ä–∞–º–µ—Ç—Ä—ã –∏ –≤—ã–∑–≤–∞—Ç—å –ø–æ–¥–ø—Ä–æ–≥—Ä–∞–º–º—É –∫–æ–ø–∏—Ä–æ–≤–∞–Ω–∏—è
   16 00000000         ; –∏ —Å–æ—Ä—Ç–∏—Ä–æ–≤–∫–∏ –º–∞—Å—Å–∏–≤–∞ —Å–ª–æ–≤ –±–µ–∑ –∑–Ω–∞–∫–∞
   17 00000000 4816            LDR              r0, =Array_SRC ; –ê–¥—Ä–µ—Å –º–∞—Å—Å–∏–≤–∞ - –∏—Å—Ç–æ—á–Ω–∏–∫–∞
   18 00000002 4917            LDR              r1, =Array_DST ; –ê–¥—Ä–µ—Å –º–∞—Å—Å–∏–≤–∞ - –ø—Ä–∏–µ–º–Ω–∏–∫–∞
   19 00000004 F04F 020A       MOV              r2, #N      ; –ß–∏—Å–ª–æ —Å–ª–æ–≤ –≤ –º–∞—Å—Å–∏–≤–µ
   20 00000008 F000 F801       BL               Copy_Array_Sort
   21 0000000C         ; –ü–æ–≤—Ç–æ—Ä–∏—Ç—å –¥–ª—è –¥—Ä—É–≥–æ–≥–æ –Ω–∞–±–æ—Ä–∞ –¥–∞–Ω–Ω—ã—Ö –≤ –∏—Å—Ö–æ–¥–Ω–æ–º –º–∞—Å—Å–∏–≤–µ
   22 0000000C E7FE            B                MyProg
   23 0000000E         
   24 0000000E         ;**********************************************************************
   25 0000000E         ; –ü–æ–¥–ø—Ä–æ–≥—Ä–∞–º–º–∞ –≤–µ—Ä—Ö–µ–≥–æ —É—Ä–æ–≤–Ω—è - –∫–æ–ø–∏—Ä–æ–≤–∞–Ω–∏–µ –∏ —Å–æ—Ä—Ç–∏—Ä–æ–≤–∫–∞ –º–∞—
                       Å—Å–∏–≤–∞
   26 0000000E         ; —Å–ª–æ–≤ –±–µ–∑ –∑–Ω–∞–∫–∞
   27 0000000E         ; –í—Ö–æ–¥–Ω—ã–µ –ø–µ—Ä–µ–º–µ–Ω–Ω—ã–µ:
   28 0000000E         ; r0 - –Ω–∞—á–∞–ª—å–Ω—ã–π –∞–¥—Ä–µ—Å –º–∞—Å—Å–∏–≤–∞-–∏—Å—Ç–æ—á–Ω–∏–∫–∞ 
   29 0000000E         ; r1 - –Ω–∞—á–∞–ª—å–Ω—ã–π –∞–¥—Ä–µ—Å –º–∞—Å—Å–∏–≤–∞-–ø—Ä–∏–µ–º–Ω–∏–∫–∞
   30 0000000E         ; r2 - —á–∏—Å–ª–æ —Å–ª–æ–≤ –≤ –º–∞—Å—Å–∏–≤–µ-–∏—Å—Ç–æ—á–Ω–∏–∫–µ
   31 0000000E         ; –ò—Å–ø–æ–ª—å–∑—É–µ–º—ã–µ —Ä–µ–≥–∏—Å—Ç—Ä—ã: r3-r7 (—Ç–æ–ª—å–∫–æ –≤ –ø–æ–¥–ø—Ä–æ–≥—Ä–∞–º–º–∞—Ö –Ω–∏–∂–Ω–µ–≥–æ
                        —É—Ä–æ–≤–Ω—è)
   32 0000000E         ;***********************************************************************
   33 0000000E         Copy_Array_Sort
   34 0000000E         ; –°–æ—Ö—Ä–∞–Ω–∏—Ç—å –≤ —Å—Ç–µ–∫–µ –∑–Ω–∞—á–µ–Ω–∏–µ —Ä–µ–≥–∏—Å—Ç—Ä–∞ —Å–≤—è–∑–∏,
   35 0000000E         ; —Ç–∞–∫ –∫–∞–∫ –≤ —Ç–µ–ª–µ –ø–æ–¥–ø—Ä–æ–≥—Ä–∞–º–º—ã –±—É–¥—É—Ç –≤–ª–æ–∂–µ–Ω–Ω—ã–µ –≤—ã–∑–æ–≤—ã –ø–æ–¥–ø—Ä–æ–
                       ≥—Ä–∞–º–º
   36 0000000E B500            PUSH             {lr}
   37 00000010         ; –í—ã–∑–≤–∞—Ç—å –ø–æ–¥–ø—Ä–æ–≥—Ä–∞–º–º—É –∫–æ–ø–∏—Ä–æ–≤–∞–Ω–∏—è –º–∞—Å—Å–∏–≤–∞ —Å–ª–æ–≤
   38 00000010 F000 F803       BL               Copy_Array_Word
   39 00000014         ; –í—ã–∑–≤–∞—Ç—å –ø–æ–¥–ø—Ä–æ–≥—Ä–∞–º–º—É —Å–æ—Ä—Ç–∏—Ä–æ–≤–∫–∏ —Å–ª–æ–≤ –ø–æ —É–±—ã–≤–∞–Ω–∏—é  –≤ –º–∞—Å—Å–∏–
                       ≤–µ-–ø—Ä–∏–µ–º–Ω–∏–∫–µ
   40 00000014 F000 F80D       BL               Sort_Array_Max_Min
   41 00000018         ; –í–æ—Å—Å—Ç–∞–Ω–æ–≤–∏—Ç—å –∏–∑ —Å—Ç–µ–∫–∞ —Å–æ–¥–µ—Ä–∂–∏–º–æ–µ —Ä–µ–≥–∏—Å—Ç—Ä–∞ —Å–≤—è–∑–∏ LR
   42 00000018         ; –í–æ–∑–≤—Ä–∞—Ç –≤ –æ—Å–Ω–æ–≤–Ω—É—é –ø—Ä–æ–≥—Ä–∞–º–º—É
   43 00000018 BD00            POP              {pc}
   44 0000001A         ;***********************************************************************
   45 0000001A         
   46 0000001A         ;****************************************************************
   47 0000001A         ; –ü–æ–¥–ø—Ä–æ–≥—Ä–∞–º–º–∞ –∫–æ–ø–∏—Ä–æ–≤–∞–Ω–∏—è –º–∞—Å—Å–∏–≤–∞ 32-—Ä–∞–∑—Ä—è–¥–Ω—ã—Ö —Å–ª–æ–≤ 
   48 0000001A         ; –í—Ö–æ–¥—ã:
   49 0000001A         ; r0 - –Ω–∞—á–∞–ª—å–Ω—ã–π –∞–¥—Ä–µ—Å –º–∞—Å—Å–∏–≤–∞-–∏—Å—Ç–æ—á–Ω–∏–∫–∞
   50 0000001A         ; r1 - –Ω–∞—á–∞–ª—å–Ω—ã–π –∞–¥—Ä–µ—Å –º–∞—Å—Å–∏–≤–∞-–ø—Ä–∏–µ–º–Ω–∏–∫–∞
   51 0000001A         ; r2 - —á–∏—Å–ª–æ —Å–ª–æ–≤ –≤ –º–∞—Å—Å–∏–≤–µ
   52 0000001A         ; –ò—Å–ø–æ–ª—å–∑—É–µ–º—ã–µ —Ä–µ–≥–∏—Å—Ç—Ä—ã:
   53 0000001A         ; r4 - —É–∫–∞–∑–∞—Ç–µ–ª—å —Ç–µ–∫—É—â–µ–≥–æ –∞–¥—Ä–µ—Å–∞ –º–∞—Å—Å–∏–≤–∞-–∏—Å—Ç–æ—á–Ω–∏–∫–∞
   54 0000001A         ; r5 - —É–∫–∞–∑–∞—Ç–µ–ª—å —Ç–µ–∫—É—â–µ–≥–æ –∞–¥—Ä–µ—Å–∞ –º–∞—Å—Å–∏–≤–∞-–ø—Ä–∏–µ–º–Ω–∏–∫–∞



ARM Macro Assembler    Page 2 


   55 0000001A         ; r6 - —Å—á–µ—Ç—á–∏–∫ —á–∏—Å–ª–∞ —Å–ª–æ–≤ –≤ –º–∞—Å—Å–∏–≤–µ
   56 0000001A         ; r7 ‚Äì —Ç–µ–∫—É—â–µ–µ –∫–æ–ø–∏—Ä—É–µ–º–æ–µ —Å–ª–æ–≤–æ –¥–∞–Ω–Ω—ã—Ö
   57 0000001A         ;****************************************************************
   58 0000001A         Copy_Array_Word
   59 0000001A         ; –°–æ—Ö—Ä–∞–Ω–∏—Ç—å –≤ —Å—Ç–µ–∫–µ —Å–æ–¥–µ—Ä–∂–∏–º–æ–µ –∏—Å–ø–æ–ª—å–∑—É–µ–º—ã—Ö –≤ –ø–æ–¥–ø—Ä–æ–≥—Ä–∞–º–º–µ 
                       —Ä–µ–≥–∏—Å—Ç—Ä–æ–≤
   60 0000001A B4F0            PUSH             {r4-r7}
   61 0000001C         ; –ó–∞–≥—Ä—É–∑–∏—Ç—å —É–∫–∞–∑–∞—Ç–µ–ª–∏ –Ω–∞—á–∞–ª—å–Ω—ã–º–∏ –∞–¥—Ä–µ—Å–∞–º–∏ –º–∞—Å—Å–∏–≤–æ–≤
   62 0000001C 4604            MOV              r4,r0       ; –ù–∞—á–∞–ª—å–Ω—ã–π –∞–¥—Ä–µ—Å –º–∞—Å—Å–∏–≤–∞-–∏—Å—Ç–æ—á–Ω–∏–∫–∞
   63 0000001E 460D            MOV              r5,r1       ; –ù–∞—á–∞–ª—å–Ω—ã–π –∞–¥–µ—Ä—Å –º–∞—Å—Å–∏–≤–∞-–ø—Ä–∏–µ–º–Ω–∏–∫–∞
   64 00000020         ; –ü—Ä–æ–∏–Ω–∏—Ü–∏–∞–ª–∏–∑–∏—Ä–æ–≤–∞—Ç—å —Å—á–µ—Ç—á–∏–∫ —á–∏—Å–ª–∞ —Ü–∏–∫–ª–æ–≤ –∫–æ–ø–∏—Ä–æ–≤–∞–Ω–∏—è
   65 00000020 4616            MOV              r6,r2       ; –ß–∏—Å–ª–æ —ç–ª–µ–º–µ–Ω—Ç–æ–≤ –º–∞—Å—Å–∏–≤–∞
   66 00000022         Loop
   67 00000022         ; –°–∫–æ–ø–∏—Ä–æ–≤–∞—Ç—å  –æ—á–µ—Ä–µ–¥–Ω–æ–µ —Å–ª–æ–≤–æ –∏–∑ –º–∞—Å—Å–∏–≤–∞-–∏—Å—Ç–æ—á–Ω–∏–∫–∞ —Å 
   68 00000022         ; –ø–æ—Å—Ç-–∞–≤—Ç–æ-—Å–º–µ—â–µ–Ω–∏–µ–º —É–∫–∞–∑–∞—Ç–µ–ª—è r4 –Ω–∞ +4 (—á–∏—Å–ª–æ –±–∞–π—Ç –≤ —Å–ª–æ–≤–µ)
   69 00000022 F854 7B04       LDR              r7, [r4], #4
   70 00000026         ; –°–æ—Ö—Ä–∞–Ω–∏—Ç—å —ç—Ç–æ —Å–ª–æ–≤–æ –≤ –º–∞—Å—Å–∏–≤–µ-–ø—Ä–∏–µ–º–Ω–∏–∫–µ —Å –ø–æ—Å—Ç-–∞–≤—Ç–æ-—Å–º–µ—â–µ–Ω
                       –∏–µ–º
   71 00000026         ; —É–∫–∞–∑–∞—Ç–µ–ª—è r5 –Ω–∞ +4 (—á–∏—Å–ª–æ –±–∞–π—Ç –≤ —Å–ª–æ–≤–µ)
   72 00000026 F845 7B04       STR              r7, [r5], #4
   73 0000002A         ; –î–µ–∫—Ä–µ–º–µ–Ω—Ç–∏—Ä–æ–≤–∞—Ç—å —Å—á–µ—Ç—á–∏–∫ —á–∏—Å–ª–∞ —Å–∫–æ–ø–∏—Ä–æ–≤–∞–Ω–Ω—ã—Ö —Å–ª–æ–≤
   74 0000002A 3E01            SUBS             r6, #1      ; –í—ã—Å—Ç–∞–≤–∏—Ç—å —Ñ–ª–∞–≥–∏ —Ä–µ–∑—É–ª—å—Ç–∞—Ç–∞ ¬´S¬ª
   75 0000002C         ; –ï—Å–ª–∏ –Ω–µ –≤—Å–µ —ç–ª–µ–º–µ–Ω—Ç—ã –º–∞—Å—Å–∏–≤–∞ —Å–∫–æ–ø–∏—Ä–æ–≤–∞–Ω—ã, –ø–æ–≤—Ç–æ—Ä–∏—Ç—å
   76 0000002C D1F9            BNE              Loop
   77 0000002E         ; –ú–∞—Å—Å–∏–≤ —Å–∫–æ–ø–∏—Ä–æ–≤–∞–Ω
   78 0000002E         ; –í–æ—Å—Å—Ç–∞–Ω–æ–≤–∏—Ç—å —Å–æ–¥–µ—Ä–∂–∏–º–æ–µ –∏—Å–ø–æ–ª—å–∑–æ–≤–∞–Ω–Ω—ã—Ö —Ä–µ–≥–∏—Å—Ç—Ä–æ–≤
   79 0000002E BCF0            POP              {r4-r7}
   80 00000030         ; –í–æ–∑–≤—Ä–∞—Ç –≤ –≤—ã–∑—ã–≤–∞—é—â—É—é –ø—Ä–æ–≥—Ä–∞–º–º–º—É
   81 00000030 4770            BX               lr
   82 00000032         ;****************************************************************
   83 00000032         
   84 00000032         ;****************************************************************
   85 00000032         ; –ü–æ–¥–ø—Ä–æ–≥—Ä–∞–º–º–∞ —Å–æ—Ä—Ç–∏—Ä–æ–≤–∫–∏ –º–∞—Å—Å–∏–≤–∞ –ø–æ —É–±—ã–≤–∞–Ω–∏—é –∑–Ω–∞—á–µ–Ω–∏–π
   86 00000032         ; –í—Ö–æ–¥—ã: 
   87 00000032         ; r1 - –Ω–∞—á–∞–ª—å–Ω—ã–π –∞–¥—Ä–µ—Å –º–∞—Å—Å–∏–≤–∞, –ø–æ–¥–ª–µ–∂–∞—â–µ–≥–æ —Å–æ—Ä—Ç–∏—Ä–æ–≤–∫–µ
   88 00000032         ; r2 - —á–∏—Å–ª–æ —ç–ª–µ–º–µ–Ω—Ç–æ–≤ –º–∞—Å—Å–∏–≤–∞
   89 00000032         ; –ò—Å–ø–æ–ª—å–∑—É–µ–º—ã–µ —Ä–µ–≥–∏—Å—Ç—Ä—ã:
   90 00000032         ; r3 - —É–∫–∞–∑–∞—Ç–µ–ª—å –Ω–∞—á–∞–ª—å–Ω–æ–≥–æ –∞–¥—Ä–µ—Å–∞ –æ—á–µ—Ä–µ–¥–Ω–æ–π –ø–∞—Ä—ã —Å–ª–æ–≤ –º–∞—Å—Å–∏–≤
                       –∞
   91 00000032         ; r4,r5 - —Ä–µ–≥–∏—Å—Ç—Ä—ã –≤—Ä–µ–º–µ–Ω–Ω–æ–≥–æ —Ö—Ä–∞–Ω–µ–Ω–∏—è –æ—á–µ—Ä–µ–¥–Ω–æ–π –ø–∞—Ä—ã —Å–ª–æ–≤
   92 00000032         ; r6 - —Å—á–µ—Ç—á–∏–∫ —á–∏—Å–ª–∞ –ø–∞—Ä —Å–ª–æ–≤ –≤ –º–∞—Å—Å–∏–≤–µ
   93 00000032         ; r7 - —Å—á–µ—Ç—á–∏–∫ —á–∏—Å–ª–∞ —Å–∫–∞–Ω–æ–≤ –º–∞—Å—Å–∏–≤–∞
   94 00000032         ;****************************************************************
   95 00000032         Sort_Array_Max_Min
   96 00000032         ; –°–æ—Ö—Ä–∞–Ω–∏—Ç—å –∫–æ–Ω—Ç–µ–∫—Å—Ç –≤—ã–∑—ã–≤–∞—é—â–µ–π –ø—Ä–æ–≥—Ä–∞–º–º—ã
   97 00000032 B4F8            PUSH             {r3-r7}
   98 00000034         ; –ò–Ω–∏—Ü–∏–∞–ª–∏–∑–∞—Ü–∏—è —Å—á–µ—Ç—á–∏–∫–∞ —á–∏—Å–ª–∞ –ø—Ä–æ—Ö–æ–¥–æ–≤ –º–∞—Å—Å–∏–≤–∞ 
   99 00000034 F1A2 0701       SUB              r7,r2,#1
  100 00000038         Out_Loop
  101 00000038         ; –£—Å—Ç–∞–Ω–æ–≤–∏—Ç—å —É–∫–∞–∑–∞—Ç–µ–ª—å r3 –Ω–∞ –Ω–∞—á–∞–ª—å–Ω—ã–π –∞–¥—Ä–µ—Å –º–∞—Å—Å–∏–≤–∞
  102 00000038 460B            MOV              r3, r1
  103 0000003A         ; –ò–Ω–∏—Ü–∏–∞–ª–∏–∑–∞—Ü–∏—è —Å—á–µ—Ç—á–∏–∫–∞ —á–∏—Å–ª–∞ —á–∏—Å–ª–∞ –ø–∞—Ä —á–∏—Å–µ–ª –≤ –º–∞—Å—Å–∏–≤–µ
  104 0000003A F1A2 0601       SUB              r6,r2,#1
  105 0000003E         In_Loop
  106 0000003E         ; –û–±—Ä–∞–±–æ—Ç–∞—Ç—å –æ—á–µ—Ä–µ–¥–Ω—É—é –ø–∞—Ä—É —ç–ª–µ–º–µ–Ω—Ç–æ–≤ –º–∞—Å—Å–∏–≤–∞
  107 0000003E         ; –ü–æ–ª—É—á–∏—Ç—å –æ—á–µ—Ä–µ–¥–Ω—É—é –ø–∞—Ä—É —Å–ª–æ–≤ –≤ —Ä–µ–≥–∏—Å—Ç—Ä—ã r4,r5
  108 0000003E E9D3 4500       LDRD             r4,r5,[r3]
  109 00000042         ; –°—Ä–∞–≤–Ω–∏—Ç—å –ø–µ—Ä–≤–æ–µ –∏ –≤—Ç–æ—Ä–æ–µ —Å–ª–æ–≤–æ –≤ –ø–∞—Ä–µ
  110 00000042 42AC            CMP              r4,r5



ARM Macro Assembler    Page 3 


  111 00000044         ; –ï—Å–ª–∏ –ø–µ—Ä–≤–æ–µ —Å–ª–æ–≤–æ "–í—ã—à–µ –∏–ª–∏ —Ä–∞–≤–Ω–æ", —Å–æ—Ö—Ä–∞–Ω–∏—Ç—å –ø–æ—Ä—è–¥–æ–∫ —Å–ª–æ–≤
  112 00000044 D201            BHS              Next
  113 00000046         ; –ü–æ–º–µ–Ω—è—Ç—å –º–µ—Å—Ç–∞–º–∏ —ç–ª–µ–º–µ–Ω—Ç—ã –º–∞—Å—Å–∏–≤–∞ –≤ —Ç–µ–∫—É—â–µ–π –ø–∞—Ä–µ
  114 00000046 E9C3 5400       STRD             r5,r4,[r3]
  115 0000004A         Next
  116 0000004A         ; –ü–µ—Ä–µ–º–µ—Å—Ç–∏—Ç—å —É–∫–∞–∑–∞—Ç–µ–ª—å –Ω–∞ —Å–ª–µ–¥—É—é—â—É—é –ø–∞—Ä—É —ç–ª–µ–º–µ–Ω—Ç–æ–≤ –º–∞—Å—Å–∏–≤–
                       ∞ 
  117 0000004A F103 0304       ADD              r3,#4
  118 0000004E         ; –î–µ–∫—Ä–µ–º–µ–Ω—Ç–∏—Ä–æ–≤–∞—Ç—å —Å—á–µ—Ç—á–∏–∫ —á–∏—Å–ª–∞ –ø–∞—Ä —ç–ª–µ–º–µ–Ω—Ç–æ–≤ –º–∞—Å—Å–∏–≤–∞
  119 0000004E 3E01            SUBS             r6,#1
  120 00000050         ; –ï—Å–ª–∏ –Ω–µ –≤—Å–µ –ø–∞—Ä—ã —ç–ª–µ–º–µ–Ω—Ç–æ–≤ –º–∞—Å—Å–∏–≤–∞ –æ–±—Ä–∞–±–æ—Ç–∞–Ω—ã ‚Äì –ø–æ–≤—Ç–æ—Ä–∏—Ç—å
                       
  121 00000050         ; –≤–Ω—É—Ç—Ä–µ–Ω–Ω–∏–π —Ü–∏–∫–ª
  122 00000050 D1F5            BNE              In_Loop
  123 00000052         ; –î–µ–∫—Ä–µ–º–µ–Ω—Ç–∏—Ä–æ–≤–∞—Ç—å —Å—á–µ—Ç—á–∏–∫ —á–∏—Å–ª–∞ —Å–∫–∞–Ω–æ–≤ –º–∞—Å—Å–∏–≤–∞
  124 00000052 3F01            SUBS             r7,#1
  125 00000054         ; –ï—Å–ª–∏ –Ω–µ –≤—Å–µ —Å–∫–∞–Ω—ã –≤—ã–ø–æ–ª–Ω–µ–Ω—ã, –ø–æ–≤—Ç–æ—Ä–∏—Ç—å
  126 00000054 D1F0            BNE              Out_Loop
  127 00000056         ; –°–æ—Ä—Ç–∏—Ä–æ–≤–∫–∞ —ç–ª–µ–º–µ–Ω—Ç–æ–≤ –º–∞—Å—Å–∏–≤–∞ –≤—ã–ø–æ–ª–Ω–µ–Ω–∞
  128 00000056         ; –í–æ—Å—Å—Ç–∞–Ω–æ–≤–∏—Ç—å –∫–æ–Ω—Ç–µ–∫—Å—Ç –≤—ã–∑—ã–≤–∞—é—â–µ–π –ø—Ä–æ–≥—Ä–∞–º–º—ã
  129 00000056 BCF8            POP              {r3-r7}
  130 00000058         ; –í–æ–∑–≤—Ä–∞—Ç –≤ –≤—ã–∑—ã–≤–∞—é—â—É—é –ø—Ä–æ–≥—Ä–∞–º–º—É
  131 00000058 4770            BX               lr
  132 0000005A         ;****************************************************************
  133 0000005A         
  134 0000005A         ; –û–±—ä—è–≤–∏—Ç—å —Å–µ–∫—Ü–∏—é –¥–∞–Ω–Ω—ã—Ö –≤ –æ–ø–µ—Ä–∞—Ç–∏–≤–Ω–æ–π –ø–∞–º—è—Ç–∏ –∏ –∑–∞—Ä–µ–∑–µ—Ä–≤–∏—Ä–æ
                       –≤–∞—Ç—å –º–µ—Å—Ç–æ
  135 0000005A         ; –¥–ª—è –º–∞—Å—Å–∏–≤–∞- –∏—Å—Ç–æ—á–Ω–∏–∫–∞ –∏ –º–∞—Å—Å–∏–≤–∞-–ø—Ä–∏–µ–º–Ω–∏–∫–∞ –¥–∞–Ω–Ω—ã—Ö
  136 0000005A 00 00           ALIGN                        ; –í—ã—Ä–æ–≤–Ω—è—Ç—å –ø–æ –≥—Ä–∞–Ω–∏—Ü–µ –ø–æ–ª–Ω–æ–≥–æ —Å–ª–æ–≤–∞
  137 0000005C 00000000 
              00000000         AREA             MyData, DATA, ReadWrite
  138 00000000 00 00 00 
              00 00 00 
              00 00 00 
              00 00 00 
              00 00 00 
              00 00 00 
              00 00 00 
              00 00 00 
              00 00 00 
              00 00 00 
              00 00 00 
              00 00 00 
              00 00 00 
              00       Array_SRC
                               SPACE            N*4
  139 00000028 00 00 00 
              00 00 00 
              00 00 00 
              00 00 00 
              00 00 00 
              00 00 00 
              00 00 00 
              00 00 00 
              00 00 00 
              00 00 00 
              00 00 00 
              00 00 00 
              00 00 00 



ARM Macro Assembler    Page 4 


              00       Array_DST
                               SPACE            N*4
  140 00000050         
  141 00000050         ; –ö–æ–Ω–µ—Ü –∞—Å—Å–µ–º–±–ª–µ—Ä–Ω–æ–≥–æ —Ç–µ–∫—Å—Ç–∞
  142 00000050                 END
Command Line: --debug --xref --width=132 --diag_suppress=9931 --cpu=Cortex-M4.fp --apcs=interwork --depend=.\objects\myprog_18_5.d -
o.\objects\myprog_18_5.o -IE:\ARM\”˜Â·ÌËÍ_ARM\œÓÂÍÚ˚\CPU\CPU_18\RTE -IC:\Keil_v5\ARM\PACK\ARM\CMSIS\4.3.0\Device\ARM\ARMCM4\Include
 -IC:\Keil_v5\ARM\CMSIS\Include --predefine="__EVAL SETA 1" --predefine="__UVISION_VERSION SETA 515" --predefine="ARMCM4_FP SETA 1" 
--list=.\listings\myprog_18_5.lst MyProg_18_5.s



ARM Macro Assembler    Page 1 Alphabetic symbol ordering
Relocatable symbols

Copy_Array_Sort 0000000E

Symbol: Copy_Array_Sort
   Definitions
      At line 33 in file MyProg_18_5.s
   Uses
      At line 20 in file MyProg_18_5.s
Comment: Copy_Array_Sort used once
Copy_Array_Word 0000001A

Symbol: Copy_Array_Word
   Definitions
      At line 58 in file MyProg_18_5.s
   Uses
      At line 38 in file MyProg_18_5.s
Comment: Copy_Array_Word used once
In_Loop 0000003E

Symbol: In_Loop
   Definitions
      At line 105 in file MyProg_18_5.s
   Uses
      At line 122 in file MyProg_18_5.s
Comment: In_Loop used once
Loop 00000022

Symbol: Loop
   Definitions
      At line 66 in file MyProg_18_5.s
   Uses
      At line 76 in file MyProg_18_5.s
Comment: Loop used once
MyCode 00000000

Symbol: MyCode
   Definitions
      At line 5 in file MyProg_18_5.s
   Uses
      None
Comment: MyCode unused
MyProg 00000000

Symbol: MyProg
   Definitions
      At line 10 in file MyProg_18_5.s
   Uses
      At line 9 in file MyProg_18_5.s
      At line 22 in file MyProg_18_5.s

Next 0000004A

Symbol: Next
   Definitions
      At line 115 in file MyProg_18_5.s
   Uses
      At line 112 in file MyProg_18_5.s
Comment: Next used once
Out_Loop 00000038




ARM Macro Assembler    Page 2 Alphabetic symbol ordering
Relocatable symbols

Symbol: Out_Loop
   Definitions
      At line 100 in file MyProg_18_5.s
   Uses
      At line 126 in file MyProg_18_5.s
Comment: Out_Loop used once
Sort_Array_Max_Min 00000032

Symbol: Sort_Array_Max_Min
   Definitions
      At line 95 in file MyProg_18_5.s
   Uses
      At line 40 in file MyProg_18_5.s
Comment: Sort_Array_Max_Min used once
9 symbols



ARM Macro Assembler    Page 1 Alphabetic symbol ordering
Relocatable symbols

Array_DST 00000028

Symbol: Array_DST
   Definitions
      At line 139 in file MyProg_18_5.s
   Uses
      At line 18 in file MyProg_18_5.s
Comment: Array_DST used once
Array_SRC 00000000

Symbol: Array_SRC
   Definitions
      At line 138 in file MyProg_18_5.s
   Uses
      At line 17 in file MyProg_18_5.s
Comment: Array_SRC used once
MyData 00000000

Symbol: MyData
   Definitions
      At line 137 in file MyProg_18_5.s
   Uses
      None
Comment: MyData unused
3 symbols



ARM Macro Assembler    Page 1 Alphabetic symbol ordering
Absolute symbols

N 0000000A

Symbol: N
   Definitions
      At line 13 in file MyProg_18_5.s
   Uses
      At line 19 in file MyProg_18_5.s
      At line 138 in file MyProg_18_5.s
      At line 139 in file MyProg_18_5.s

1 symbol
349 symbols in table
