


ARM Macro Assembler    Page 1 


    1 00000000         ; –í–ª–æ–∂–µ–Ω–Ω—ã–µ –ø–æ–¥–ø—Ä–æ–≥—Ä–∞–º–º—ã. –°–æ—Ö—Ä–∞–Ω–µ–Ω–∏–µ –∏
    2 00000000         ; –≤–æ—Å—Å—Ç–∞–Ω–æ–≤–ª–µ–Ω–∏–µ –∫–æ–Ω—Ç–µ–∫—Å—Ç–∞
    3 00000000                 area             myROMdata, data, readonly, align = 4
    4 00000000         ;         1.0, 0.33, 0.77, 1.33, 2.77
    5 00000000 3F8147AE 
              3EA8F5C3 
              3F451EB8 
              3FAA3D71 ROM_X   DCD              0x3F8147AE, 0x3EA8F5C3, 0x3F451EB8, 0x3FAA3D71
    6 00000010         ; –û–±—ä—è–≤–∏—Ç—å –∫–æ–¥–æ–≤—É—é —Å–µ–∫—Ü–∏—é MyCode
    7 00000010                 AREA             MyCode, CODE, ReadOnly
    8 00000000         ; –û–±—ä—è–≤–∏—Ç—å —Ç–æ—á–∫—É –≤—Ö–æ–¥–∞ –≤ –ø—Ä–æ–≥—Ä–∞–º–º—É –ø—Ä–∏–ª–æ–∂–µ–Ω–∏—è 
    9 00000000                 ENTRY
   10 00000000         ; –û–±—ä–≤–∏—Ç—å —Ç–æ—á–∫—É –≤—Ö–æ–¥–∞ –≥–ª–æ–±–∞–ª—å–Ω–æ–π –ø–µ—Ä–µ–º–µ–Ω–Ω–æ–π
   11 00000000                 EXPORT           MyProg
   12 00000000         MyProg
   13 00000000         ; –û—Å–Ω–æ–≤–Ω–∞—è –ø—Ä–æ–≥—Ä–∞–º–º–∞
   14 00000000         ; –ß–∏—Å–ª–æ —ç–ª–µ–º–µ–Ω—Ç–æ–≤ –∏—Å—Ö–æ–¥–Ω–æ–≥–æ –º–∞—Å—Å–∏–≤–∞ —Å–ª–æ–≤ –±–µ–∑ –∑–Ω–∞–∫–∞
   15 00000000 00000002 
                       Collumn EQU              2
   16 00000000 00000002 
                       Row     EQU              2
   17 00000000         ;    ...
   18 00000000         ; –ü–µ—Ä–µ–¥–∞—Ç—å –ø–∞—Ä–∞–º–µ—Ç—Ä—ã –∏ –≤—ã–∑–≤–∞—Ç—å –ø–æ–¥–ø—Ä–æ–≥—Ä–∞–º–º—É –∫–æ–ø–∏—Ä–æ–≤–∞–Ω–∏—è
   19 00000000         ; –∏ —Å–æ—Ä—Ç–∏—Ä–æ–≤–∫–∏ –º–∞—Å—Å–∏–≤–∞ —Å–ª–æ–≤ –±–µ–∑ –∑–Ω–∞–∫–∞
   20 00000000 F240 0000 
              F2C0 0000        mov32            R0, ROM_X   ; –ê–¥—Ä–µ—Å –º–∞—Å—Å–∏–≤–∞ - –∏—Å—Ç–æ—á–Ω–∏–∫–∞
   21 00000008 4921            LDR              r1,=Array_DST ; –ê–¥—Ä–µ—Å –º–∞—Å—Å–∏–≤–∞ - –ø—Ä–∏–µ–º–Ω–∏–∫–∞
   22 0000000A F04F 0202       MOV              r2,#Collumn ; –ß–∏—Å–ª–æ —Å–ª–æ–≤ –≤ –º–∞—Å—Å–∏–≤–µ
   23 0000000E F04F 0302       MOV              r3,#Row
   24 00000012 F000 F801       BL               Copy_Array_Sort
   25 00000016         ; –ü–æ–≤—Ç–æ—Ä–∏—Ç—å –¥–ª—è –¥—Ä—É–≥–æ–≥–æ –Ω–∞–±–æ—Ä–∞ –¥–∞–Ω–Ω—ã—Ö –≤ –∏—Å—Ö–æ–¥–Ω–æ–º –º–∞—Å—Å–∏–≤–µ
   26 00000016 E7FE            B                MyProg
   27 00000018         
   28 00000018         ;**********************************************************************
   29 00000018         ; –ü–æ–¥–ø—Ä–æ–≥—Ä–∞–º–º–∞ –≤–µ—Ä—Ö–µ–≥–æ —É—Ä–æ–≤–Ω—è - –∫–æ–ø–∏—Ä–æ–≤–∞–Ω–∏–µ –∏ —Å–æ—Ä—Ç–∏—Ä–æ–≤–∫–∞ –º–∞—
                       Å—Å–∏–≤–∞
   30 00000018         ; —Å–ª–æ–≤ –±–µ–∑ –∑–Ω–∞–∫–∞
   31 00000018         ; –í—Ö–æ–¥–Ω—ã–µ –ø–µ—Ä–µ–º–µ–Ω–Ω—ã–µ:
   32 00000018         ; r0 - –Ω–∞—á–∞–ª—å–Ω—ã–π –∞–¥—Ä–µ—Å –º–∞—Å—Å–∏–≤–∞-–∏—Å—Ç–æ—á–Ω–∏–∫–∞ 
   33 00000018         ; r1 - –Ω–∞—á–∞–ª—å–Ω—ã–π –∞–¥—Ä–µ—Å –º–∞—Å—Å–∏–≤–∞-–ø—Ä–∏–µ–º–Ω–∏–∫–∞
   34 00000018         ; r2 - —á–∏—Å–ª–æ —Å–ª–æ–≤ –≤ –º–∞—Å—Å–∏–≤–µ-–∏—Å—Ç–æ—á–Ω–∏–∫–µ
   35 00000018         ; –ò—Å–ø–æ–ª—å–∑—É–µ–º—ã–µ —Ä–µ–≥–∏—Å—Ç—Ä—ã: r3-r7 (–≤–æ –≤—Å–µ—Ö –≤–ª–æ–∂–µ–Ω–Ω—ã—Ö –ø–æ–¥–ø—Ä–æ–≥—Ä–∞–º–º–∞
                       —Ö)
   36 00000018         ;***********************************************************************
   37 00000018         Copy_Array_Sort
   38 00000018         ; –°–æ—Ö—Ä–∞–Ω–∏—Ç—å –≤ —Å—Ç–µ–∫–µ –∑–Ω–∞—á–µ–Ω–∏—è –∏—Å–ø–æ–ª—å–∑—É–µ–º—ã—Ö —Ä–µ–≥–∏—Å—Ç—Ä–æ–≤ –∏ —Ä–µ–≥–∏—Å
                       —Ç—Ä–∞ —Å–≤—è–∑–∏,
   39 00000018         ; —Ç–∞–∫ –∫–∞–∫ –≤ —Ç–µ–ª–µ –ø–æ–¥–ø—Ä–æ–≥—Ä–∞–º–º—ã –±—É–¥—É—Ç –≤–ª–æ–∂–µ–Ω–Ω—ã–µ –≤—ã–∑–æ–≤—ã –ø–æ–¥–ø—Ä–æ–
                       ≥—Ä–∞–º–º
   40 00000018 E92D 41F0       PUSH             {r4-r8, lr}
   41 0000001C         ; –ü–µ—Ä–µ–¥–∞—Ç—å –ø–∞—Ä–∞–º–µ—Ç—Ä—ã –∏ –≤—ã–∑–≤–∞—Ç—å –ø–æ–¥–ø—Ä–æ–≥—Ä–∞–º–º—É –∫–æ–ø–∏—Ä–æ–≤–∞–Ω–∏—è –º–∞—
                       Å—Å–∏–≤–∞ —Å–ª–æ–≤
   42 0000001C 4604            MOV              r4,r0       ; –ù–∞—á–∞–ª—å–Ω—ã–π –∞–¥—Ä–µ—Å –º–∞—Å—Å–∏–≤–∞-–∏—Å—Ç–æ—á–Ω–∏–∫–∞
   43 0000001E 460D            MOV              r5,r1       ; –ù–∞—á–∞–ª—å–Ω—ã–π –∞–¥–µ—Ä—Å –º–∞—Å—Å–∏–≤–∞-–ø—Ä–∏–µ–º–Ω–∏–∫–∞
   44 00000020 4616            MOV              r6,r2       ; –ß–∏—Å–ª–æ —ç–ª–µ–º–µ–Ω—Ç–æ–≤ –≤ —Å—Ç–æ–ª–±—Ü–µ
   45 00000022 461F            MOV              r7,r3       ; –ß–∏—Å–ª–æ —ç–ª–µ–º–µ–Ω—Ç–æ–≤ –≤ —Å—Ç—Ä–æ–∫–µ
   46 00000024         ; –í—ã–∑–≤–∞—Ç—å –ø–æ–¥–ø—Ä–æ–≥—Ä–∞–º–º—É –∫–æ–ø–∏—Ä–æ–≤–∞–Ω–∏—è –º–∞—Å—Å–∏–≤–∞ —Å–ª–æ–≤
   47 00000024 F000 F804       BL               Copy_Array_Word
   48 00000028         ; –í—ã–∑–≤–∞—Ç—å –ø–æ–¥–ø—Ä–æ–≥—Ä–∞–º–º—É —Å–æ—Ä—Ç–∏—Ä–æ–≤–∫–∏ —Å–ª–æ–≤ –ø–æ —É–±—ã–≤–∞–Ω–∏—é –≤ –º–∞—Å—Å–∏–≤



ARM Macro Assembler    Page 2 


                       –µ-–ø—Ä–∏–µ–º–Ω–∏–∫–µ
   49 00000028 F7FF FFFE       BL               Sort_Array_Max_Min
   50 0000002C         ; –í–æ—Å—Å—Ç–∞–Ω–æ–≤–∏—Ç—å –∑–Ω–∞—á–µ–Ω–∏—è –∏—Å–ø–æ–ª—å–∑–æ–≤–∞–Ω–Ω—ã—Ö —Ä–µ–≥–∏—Å—Ç—Ä–æ–≤ –∏–∑ —Å—Ç–µ–∫–∞
   51 0000002C         ; –í–æ–∑–≤—Ä–∞—Ç –≤ –æ—Å–Ω–æ–≤–Ω—É—é –ø—Ä–æ–≥—Ä–∞–º–º—É
   52 0000002C E8BD 81F0       POP{r4-r8,       pc}
   53 00000030         ;***********************************************************************
   54 00000030         
   55 00000030         ;****************************************************************
   56 00000030         ; –ü–æ–¥–ø—Ä–æ–≥—Ä–∞–º–º–∞ –∫–æ–ø–∏—Ä–æ–≤–∞–Ω–∏—è –º–∞—Å—Å–∏–≤–∞ 32-—Ä–∞–∑—Ä—è–¥–Ω—ã—Ö —Å–ª–æ–≤ 
   57 00000030         ; –í—Ö–æ–¥—ã:
   58 00000030         ; r4 - –Ω–∞—á–∞–ª—å–Ω—ã–π –∞–¥—Ä–µ—Å –º–∞—Å—Å–∏–≤–∞-–∏—Å—Ç–æ—á–Ω–∏–∫–∞
   59 00000030         ; r5 - –Ω–∞—á–∞–ª—å–Ω—ã–π –∞–¥—Ä–µ—Å –º–∞—Å—Å–∏–≤–∞-–ø—Ä–∏–µ–º–Ω–∏–∫–∞
   60 00000030         ; r6 - —á–∏—Å–ª–æ —Å–ª–æ–≤ –≤ –º–∞—Å—Å–∏–≤–µ
   61 00000030         ; –ò—Å–ø–æ–ª—å–∑—É–µ–º—ã–µ —Ä–µ–≥–∏—Å—Ç—Ä—ã:
   62 00000030         ; r7 ‚Äì —Ç–µ–∫—É—â–µ–µ –∫–æ–ø–∏—Ä—É–µ–º–æ–µ —Å–ª–æ–≤–æ –¥–∞–Ω–Ω—ã—Ö
   63 00000030         ;****************************************************************
   64 00000030         
   65 00000030         Copy_Array_Word
   66 00000030         ; –°–∫–æ–ø–∏—Ä–æ–≤–∞—Ç—å  –æ—á–µ—Ä–µ–¥–Ω–æ–µ —Å–ª–æ–≤–æ –∏–∑ –º–∞—Å—Å–∏–≤–∞-–∏—Å—Ç–æ—á–Ω–∏–∫–∞ —Å 
   67 00000030         ; –ø–æ—Å—Ç-–∞–≤—Ç–æ-—Å–º–µ—â–µ–Ω–∏–µ–º —É–∫–∞–∑–∞—Ç–µ–ª—è r4 –Ω–∞ +4 (—á–∏—Å–ª–æ –±–∞–π—Ç –≤ —Å–ª–æ–≤–µ)
   68 00000030 F854 8B04       LDR              r8,[r4],#4
   69 00000034         ; –°–æ—Ö—Ä–∞–Ω–∏—Ç—å —ç—Ç–æ —Å–ª–æ–≤–æ –≤ –º–∞—Å—Å–∏–≤–µ-–ø—Ä–∏–µ–º–Ω–∏–∫–µ —Å –ø–æ—Å—Ç-–∞–≤—Ç–æ-—Å–º–µ—â–µ–Ω
                       –∏–µ–º
   70 00000034         ; —É–∫–∞–∑–∞—Ç–µ–ª—è r5 –Ω–∞ +4 (—á–∏—Å–ª–æ –±–∞–π—Ç –≤ —Å–ª–æ–≤–µ)
   71 00000034 F845 8B04       STR              r8,[r5],#4
   72 00000038         ; –î–µ–∫—Ä–µ–º–µ–Ω—Ç–∏—Ä–æ–≤–∞—Ç—å —Å—á–µ—Ç—á–∏–∫ —á–∏—Å–ª–∞ —Å–∫–æ–ø–∏—Ä–æ–≤–∞–Ω–Ω—ã—Ö —Å–ª–æ–≤
   73 00000038 3F01            SUBS             r7,#1       ; –í—ã—Å—Ç–∞–≤–∏—Ç—å —Ñ–ª–∞–≥–∏ —Ä–µ–∑—É–ª—å—Ç–∞—Ç–∞ ¬´S¬ª
   74 0000003A         ; –ï—Å–ª–∏ –Ω–µ –≤—Å–µ —ç–ª–µ–º–µ–Ω—Ç—ã –º–∞—Å—Å–∏–≤–∞ —Å–∫–æ–ø–∏—Ä–æ–≤–∞–Ω—ã, –ø–æ–≤—Ç–æ—Ä–∏—Ç—å
   75 0000003A D1F9            BNE              Copy_Array_Word
   76 0000003C         ; –ú–∞—Å—Å–∏–≤ —Å–∫–æ–ø–∏—Ä–æ–≤–∞–Ω, –≤–æ–∑–≤—Ä–∞—Ç –≤ –≤—ã–∑—ã–≤–∞—é—â—É—é –ø—Ä–æ–≥—Ä–∞–º–º–º—É
   77 0000003C 461F            MOV              r7, r3
   78 0000003E F105 0510       ADD              r5, 0x10
   79 00000042 3E01            SUBS             r6, #1
   80 00000044 D1F4            BNE              Copy_Array_Word
   81 00000046 4770            BX               lr
   82 00000048         ;****************************************************************
   83 00000048         
   84 00000048         ;****************************************************************
   85 00000048         ; –ü–æ–¥–ø—Ä–æ–≥—Ä–∞–º–º–∞ —Å–æ—Ä—Ç–∏—Ä–æ–≤–∫–∏ –º–∞—Å—Å–∏–≤–∞ –ø–æ —É–±—ã–≤–∞–Ω–∏—é –∑–Ω–∞—á–µ–Ω–∏–π
   86 00000048         ; –í—Ö–æ–¥—ã: 
   87 00000048         ; r1 - –Ω–∞—á–∞–ª—å–Ω—ã–π –∞–¥—Ä–µ—Å –º–∞—Å—Å–∏–≤–∞, –ø–æ–¥–ª–µ–∂–∞—â–µ–≥–æ —Å–æ—Ä—Ç–∏—Ä–æ–≤–∫–µ
   88 00000048         ; r2 - —á–∏—Å–ª–æ —ç–ª–µ–º–µ–Ω—Ç–æ–≤ –º–∞—Å—Å–∏–≤–∞
   89 00000048         ; –ò—Å–ø–æ–ª—å–∑—É–µ–º—ã–µ —Ä–µ–≥–∏—Å—Ç—Ä—ã:
   90 00000048         ; r3 - —É–∫–∞–∑–∞—Ç–µ–ª—å –Ω–∞—á–∞–ª—å–Ω–æ–≥–æ –∞–¥—Ä–µ—Å–∞ –æ—á–µ—Ä–µ–¥–Ω–æ–π –ø–∞—Ä—ã —Å–ª–æ–≤ –º–∞—Å—Å–∏–≤
                       –∞
   91 00000048         ; r4,r5 - —Ä–µ–≥–∏—Å—Ç—Ä—ã –≤—Ä–µ–º–µ–Ω–Ω–æ–≥–æ —Ö—Ä–∞–Ω–µ–Ω–∏—è –æ—á–µ—Ä–µ–¥–Ω–æ–π –ø–∞—Ä—ã —Å–ª–æ–≤
   92 00000048         ; r6 - —Å—á–µ—Ç—á–∏–∫ —á–∏—Å–ª–∞ –ø–∞—Ä —Å–ª–æ–≤ –≤ –º–∞—Å—Å–∏–≤–µ
   93 00000048         ; r7 - —Å—á–µ—Ç—á–∏–∫ —á–∏—Å–ª–∞ —Å–∫–∞–Ω–æ–≤ –º–∞—Å—Å–∏–≤–∞
   94 00000048         ;****************************************************************
   95 00000048         Sort_Array_Max_Min
                               proc
   96 00000048         ; –ò–Ω–∏—Ü–∏–∞–ª–∏–∑–∞—Ü–∏—è —Å—á–µ—Ç—á–∏–∫–∞ —á–∏—Å–ª–∞ –ø—Ä–æ—Ö–æ–¥–æ–≤ –º–∞—Å—Å–∏–≤–∞ 
   97 00000048         
   98 00000048         Out_Loop
   99 00000048         ; –£—Å—Ç–∞–Ω–æ–≤–∏—Ç—å —É–∫–∞–∑–∞—Ç–µ–ª—å r3 –Ω–∞ –Ω–∞—á–∞–ª—å–Ω—ã–π –∞–¥—Ä–µ—Å –º–∞—Å—Å–∏–≤–∞
  100 00000048 460B            MOV              r3,r1
  101 0000004A 4616            MOV              r6,r2
  102 0000004C F1A2 0701       SUB              r7,r2,#1
  103 00000050 F000 F805       BL               In_Loop



ARM Macro Assembler    Page 3 


  104 00000054         Za_Loop
  105 00000054         ; –ò–Ω–∏—Ü–∏–∞–ª–∏–∑–∞—Ü–∏—è —Å—á–µ—Ç—á–∏–∫–∞ —á–∏—Å–ª–∞ —á–∏—Å–ª–∞ –ø–∞—Ä —á–∏—Å–µ–ª –≤ –º–∞—Å—Å–∏–≤–µ
  106 00000054 460B            MOV              r3,r1
  107 00000056 F103 0304       add              r3,#4
  108 0000005A F1A2 0701       SUB              r7,r2,#1
  109 0000005E         In_Loop
  110 0000005E         ; –û–±—Ä–∞–±–æ—Ç–∞—Ç—å –æ—á–µ—Ä–µ–¥–Ω—É—é –ø–∞—Ä—É —ç–ª–µ–º–µ–Ω—Ç–æ–≤ –º–∞—Å—Å–∏–≤–∞
  111 0000005E         ; –ü–æ–ª—É—á–∏—Ç—å –æ—á–µ—Ä–µ–¥–Ω—É—é –ø–∞—Ä—É —Å–ª–æ–≤ –≤ —Ä–µ–≥–∏—Å—Ç—Ä—ã r4,r5
  112 0000005E 681C            LDR              r4,[r3]
  113 00000060 F103 0318       ADD              r3,0x18
  114 00000064 681D            LDR              r5,[r3]
  115 00000066         ; –°—Ä–∞–≤–Ω–∏—Ç—å –ø–µ—Ä–≤–æ–µ –∏ –≤—Ç–æ—Ä–æ–µ —Å–ª–æ–≤–æ –≤ –ø–∞—Ä–µ
  116 00000066 42AC            CMP              r4,r5
  117 00000068         ; –ï—Å–ª–∏ –ø–µ—Ä–≤–æ–µ —Å–ª–æ–≤–æ "–í—ã—à–µ –∏–ª–∏ —Ä–∞–≤–Ω–æ", —Å–æ—Ö—Ä–∞–Ω–∏—Ç—å –ø–æ—Ä—è–¥–æ–∫ —Å–ª–æ–≤
  118 00000068 D207            BHS              Next
  119 0000006A         ; –ü–æ–º–µ–Ω—è—Ç—å –º–µ—Å—Ç–∞–º–∏ —ç–ª–µ–º–µ–Ω—Ç—ã –º–∞—Å—Å–∏–≤–∞ –≤ —Ç–µ–∫—É—â–µ–π –ø–∞—Ä–µ
  120 0000006A F853 8918       LDR              r8,[r3],#-24
  121 0000006E F853 9B00       LDR              r9,[r3],#0
  122 00000072 F843 8B18       STR              r8,[r3],#24
  123 00000076 F843 9B04       STR              r9,[r3],#4
  124 0000007A         
  125 0000007A         Next
  126 0000007A         ; –ü–µ—Ä–µ–º–µ—Å—Ç–∏—Ç—å —É–∫–∞–∑–∞—Ç–µ–ª—å –Ω–∞ —Å–ª–µ–¥—É—é—â—É—é –ø–∞—Ä—É —ç–ª–µ–º–µ–Ω—Ç–æ–≤ –º–∞—Å—Å–∏–≤–
                       ∞ 
  127 0000007A F103 0304       ADD              r3,#4
  128 0000007E         ; –î–µ–∫—Ä–µ–º–µ–Ω—Ç–∏—Ä–æ–≤–∞—Ç—å —Å—á–µ—Ç—á–∏–∫ —á–∏—Å–ª–∞ –ø–∞—Ä —ç–ª–µ–º–µ–Ω—Ç–æ–≤ –º–∞—Å—Å–∏–≤–∞
  129 0000007E 3F01            SUBS             r7,#1
  130 00000080         ; –ï—Å–ª–∏ –Ω–µ –≤—Å–µ –ø–∞—Ä—ã —ç–ª–µ–º–µ–Ω—Ç–æ–≤ –º–∞—Å—Å–∏–≤–∞ –æ–±—Ä–∞–±–æ—Ç–∞–Ω—ã ‚Äì –ø–æ–≤—Ç–æ—Ä–∏—Ç—å
                       
  131 00000080         ; –≤–Ω—É—Ç—Ä–µ–Ω–Ω–∏–π —Ü–∏–∫–ª
  132 00000080 D1E8            BNE              Za_Loop
  133 00000082         ; –î–µ–∫—Ä–µ–º–µ–Ω—Ç–∏—Ä–æ–≤–∞—Ç—å —Å—á–µ—Ç—á–∏–∫ —á–∏—Å–ª–∞ —Å–∫–∞–Ω–æ–≤ –º–∞—Å—Å–∏–≤–∞
  134 00000082         Posle_Loop
  135 00000082 3E01            SUBS             r6,#1
  136 00000084         ; –ï—Å–ª–∏ –Ω–µ –≤—Å–µ —Å–∫–∞–Ω—ã –≤—ã–ø–æ–ª–Ω–µ–Ω—ã, –ø–æ–≤—Ç–æ—Ä–∏—Ç—å
  137 00000084 D1E6            BNE              Za_Loop
  138 00000086         ; –°–æ—Ä—Ç–∏—Ä–æ–≤–∫–∞ —ç–ª–µ–º–µ–Ω—Ç–æ–≤ –º–∞—Å—Å–∏–≤–∞ –≤—ã–ø–æ–ª–Ω–µ–Ω–∞, –≤–æ–∑–≤—Ä–∞—Ç –≤ –≤—ã–∑—ã–≤–∞—é
                       —â—É—é 
  139 00000086         ; –ø—Ä–æ–≥—Ä–∞–º–º—É
  140 00000086 F000 F800       BL               loop
  141 0000008A         ;****************************************************************
  142 0000008A                 endp
  143 0000008A         loop
  144 0000008A F7FF FFFE       BL               loop
  145 0000008E         
  146 0000008E         ; –û–±—ä—è–≤–∏—Ç—å —Å–µ–∫—Ü–∏—é –¥–∞–Ω–Ω—ã—Ö –≤ –æ–ø–µ—Ä–∞—Ç–∏–≤–Ω–æ–π –ø–∞–º—è—Ç–∏ –∏ –∑–∞—Ä–µ–∑–µ—Ä–≤–∏—Ä–æ
                       –≤–∞—Ç—å –º–µ—Å—Ç–æ
  147 0000008E         ; –¥–ª—è –º–∞—Å—Å–∏–≤–∞- –∏—Å—Ç–æ—á–Ω–∏–∫–∞ –∏ –º–∞—Å—Å–∏–≤–∞-–ø—Ä–∏–µ–º–Ω–∏–∫–∞ –¥–∞–Ω–Ω—ã—Ö
  148 0000008E 00 00           ALIGN                        ; –í—ã—Ä–æ–≤–Ω—è—Ç—å –ø–æ –≥—Ä–∞–Ω–∏—Ü–µ –ø–æ–ª–Ω–æ–≥–æ —Å–ª–æ–≤–∞
  149 00000090 00000000        AREA             MyData, DATA, ReadWrite
  150 00000000 00 00 00 
              00 00 00 
              00 00    Array_DST
                               SPACE            Row*4
  151 00000008         
  152 00000008         ; –ö–æ–Ω–µ—Ü –∞—Å—Å–µ–º–±–ª–µ—Ä–Ω–æ–≥–æ —Ç–µ–∫—Å—Ç–∞
  153 00000008                 END
Command Line: --debug --xref --width=132 --diag_suppress=9931 --cpu=Cortex-M4.fp --depend=.\objects\myprog_18_4.d -o.\objects\myprog
_18_4.o -I.\RTE\_Target_1 -IE:\keil\ARM\PACK\ARM\CMSIS\5.4.0\Device\ARM\ARMCM4\Include -IE:\keil\ARM\CMSIS\Include --predefine="__EV



ARM Macro Assembler    Page 4 


AL SETA 1" --predefine="__UVISION_VERSION SETA 526" --predefine="ARMCM4_FP SETA 1" --list=.\listings\myprog_18_4.lst MyProg_18_4.s



ARM Macro Assembler    Page 1 Alphabetic symbol ordering
Relocatable symbols

ROM_X 00000000

Symbol: ROM_X
   Definitions
      At line 5 in file MyProg_18_4.s
   Uses
      At line 20 in file MyProg_18_4.s
Comment: ROM_X used once
myROMdata 00000000

Symbol: myROMdata
   Definitions
      At line 3 in file MyProg_18_4.s
   Uses
      None
Comment: myROMdata unused
2 symbols



ARM Macro Assembler    Page 1 Alphabetic symbol ordering
Relocatable symbols

Copy_Array_Sort 00000018

Symbol: Copy_Array_Sort
   Definitions
      At line 37 in file MyProg_18_4.s
   Uses
      At line 24 in file MyProg_18_4.s
Comment: Copy_Array_Sort used once
Copy_Array_Word 00000030

Symbol: Copy_Array_Word
   Definitions
      At line 65 in file MyProg_18_4.s
   Uses
      At line 47 in file MyProg_18_4.s
      At line 75 in file MyProg_18_4.s
      At line 80 in file MyProg_18_4.s

In_Loop 0000005E

Symbol: In_Loop
   Definitions
      At line 109 in file MyProg_18_4.s
   Uses
      At line 103 in file MyProg_18_4.s
Comment: In_Loop used once
MyCode 00000000

Symbol: MyCode
   Definitions
      At line 7 in file MyProg_18_4.s
   Uses
      None
Comment: MyCode unused
MyProg 00000000

Symbol: MyProg
   Definitions
      At line 12 in file MyProg_18_4.s
   Uses
      At line 11 in file MyProg_18_4.s
      At line 26 in file MyProg_18_4.s

Next 0000007A

Symbol: Next
   Definitions
      At line 125 in file MyProg_18_4.s
   Uses
      At line 118 in file MyProg_18_4.s
Comment: Next used once
Out_Loop 00000048

Symbol: Out_Loop
   Definitions
      At line 98 in file MyProg_18_4.s
   Uses
      None
Comment: Out_Loop unused



ARM Macro Assembler    Page 2 Alphabetic symbol ordering
Relocatable symbols

Posle_Loop 00000082

Symbol: Posle_Loop
   Definitions
      At line 134 in file MyProg_18_4.s
   Uses
      None
Comment: Posle_Loop unused
Sort_Array_Max_Min 00000048

Symbol: Sort_Array_Max_Min
   Definitions
      At line 95 in file MyProg_18_4.s
   Uses
      At line 49 in file MyProg_18_4.s
Comment: Sort_Array_Max_Min used once
Za_Loop 00000054

Symbol: Za_Loop
   Definitions
      At line 104 in file MyProg_18_4.s
   Uses
      At line 132 in file MyProg_18_4.s
      At line 137 in file MyProg_18_4.s

loop 0000008A

Symbol: loop
   Definitions
      At line 143 in file MyProg_18_4.s
   Uses
      At line 140 in file MyProg_18_4.s
      At line 144 in file MyProg_18_4.s

11 symbols



ARM Macro Assembler    Page 1 Alphabetic symbol ordering
Relocatable symbols

Array_DST 00000000

Symbol: Array_DST
   Definitions
      At line 150 in file MyProg_18_4.s
   Uses
      At line 21 in file MyProg_18_4.s
Comment: Array_DST used once
MyData 00000000

Symbol: MyData
   Definitions
      At line 149 in file MyProg_18_4.s
   Uses
      None
Comment: MyData unused
2 symbols



ARM Macro Assembler    Page 1 Alphabetic symbol ordering
Absolute symbols

Collumn 00000002

Symbol: Collumn
   Definitions
      At line 15 in file MyProg_18_4.s
   Uses
      At line 22 in file MyProg_18_4.s
Comment: Collumn used once
Row 00000002

Symbol: Row
   Definitions
      At line 16 in file MyProg_18_4.s
   Uses
      At line 23 in file MyProg_18_4.s
      At line 150 in file MyProg_18_4.s

2 symbols
353 symbols in table
